target datalayout = "e-m:e-p270:32:32-p271:32:32-p272:64:64-i64:64-i128:128-f80:128-n8:16:32:64-S128"
target triple = "x86_64-pc-linux-gnu"

%struct.AVChannelLayout = type { i32, i32, %union.anon, ptr }
%union.anon = type { i64 }
%struct.AVFormatContext = type { ptr, ptr, ptr, ptr, ptr, i32, i32, ptr, i32, ptr, i32, ptr, ptr, i64, i64, i64, i32, i32, i32, i64, i64, ptr, i32, i32, ptr, i32, i32, i32, i32, ptr, i64, i32, i32, %struct.AVIOInterruptCB, i32, i32, i32, i32, i64, i32, i32, i32, i32, i32, i32, i32, i32, i32, i32, i32, i32, i64, i32, i32, i32, i32, i32, ptr, ptr, ptr, ptr, i32, ptr, ptr, ptr, ptr, i32, ptr, ptr, i64, ptr, ptr, ptr, i64 }
%struct.AVIOInterruptCB = type { ptr, ptr }
%struct.AVStream = type { ptr, i32, i32, ptr, ptr, %struct.AVRational, i64, i64, i64, i32, i32, %struct.AVRational, ptr, %struct.AVRational, %struct.AVPacket, i32, %struct.AVRational, i32 }
%struct.AVPacket = type { ptr, i64, i64, ptr, i32, i32, i32, ptr, i32, i64, i64, ptr, ptr, %struct.AVRational }
%struct.AVRational = type { i32, i32 }
%struct.AVCodecParameters = type { i32, i32, i32, ptr, i32, ptr, i32, i32, i64, i32, i32, i32, i32, i32, i32, %struct.AVRational, %struct.AVRational, i32, i32, i32, i32, i32, i32, i32, %struct.AVChannelLayout, i32, i32, i32, i32, i32, i32 }
%struct.MXGContext = type { ptr, ptr, ptr, i32, i64, i32 }

; Function Attrs: nounwind uwtable
define internal i32 @mxg_read_header(ptr noundef %0) #0 {
  %2 = alloca i32, align 4
  %3 = alloca ptr, align 8
  %4 = alloca ptr, align 8
  %5 = alloca ptr, align 8
  %6 = alloca ptr, align 8
  %7 = alloca i32, align 4
  %8 = alloca %struct.AVChannelLayout, align 8
  store ptr %0, ptr %3, align 8, !tbaa !4
  call void @llvm.lifetime.start.p0(i64 8, ptr %4) #6
  call void @llvm.lifetime.start.p0(i64 8, ptr %5) #6
  call void @llvm.lifetime.start.p0(i64 8, ptr %6) #6
  %9 = load ptr, ptr %3, align 8, !tbaa !4
  %10 = getelementptr inbounds nuw %struct.AVFormatContext, ptr %9, i32 0, i32 3
  %11 = load ptr, ptr %10, align 8, !tbaa !9
  store ptr %11, ptr %6, align 8, !tbaa !26
  %12 = load ptr, ptr %3, align 8, !tbaa !4
  %13 = call ptr @avformat_new_stream(ptr noundef %12, ptr noundef null)
  store ptr %13, ptr %4, align 8, !tbaa !28
  %14 = load ptr, ptr %4, align 8, !tbaa !28
  %15 = icmp ne ptr %14, null
  br i1 %15, label %17, label %16

16:                                               ; preds = %1
  store i32 -12, ptr %2, align 4
  store i32 1, ptr %7, align 4
  br label %74

17:                                               ; preds = %1
  %18 = load ptr, ptr %4, align 8, !tbaa !28
  %19 = getelementptr inbounds nuw %struct.AVStream, ptr %18, i32 0, i32 3
  %20 = load ptr, ptr %19, align 8, !tbaa !30
  %21 = getelementptr inbounds nuw %struct.AVCodecParameters, ptr %20, i32 0, i32 0
  store i32 0, ptr %21, align 8, !tbaa !37
  %22 = load ptr, ptr %4, align 8, !tbaa !28
  %23 = getelementptr inbounds nuw %struct.AVStream, ptr %22, i32 0, i32 3
  %24 = load ptr, ptr %23, align 8, !tbaa !30
  %25 = getelementptr inbounds nuw %struct.AVCodecParameters, ptr %24, i32 0, i32 1
  store i32 145, ptr %25, align 4, !tbaa !40
  %26 = load ptr, ptr %4, align 8, !tbaa !28
  call void @avpriv_set_pts_info(ptr noundef %26, i32 noundef 64, i32 noundef 1, i32 noundef 1000000)
  %27 = load ptr, ptr %3, align 8, !tbaa !4
  %28 = call ptr @avformat_new_stream(ptr noundef %27, ptr noundef null)
  store ptr %28, ptr %5, align 8, !tbaa !28
  %29 = load ptr, ptr %5, align 8, !tbaa !28
  %30 = icmp ne ptr %29, null
  br i1 %30, label %32, label %31

31:                                               ; preds = %17
  store i32 -12, ptr %2, align 4
  store i32 1, ptr %7, align 4
  br label %74

32:                                               ; preds = %17
  %33 = load ptr, ptr %5, align 8, !tbaa !28
  %34 = getelementptr inbounds nuw %struct.AVStream, ptr %33, i32 0, i32 3
  %35 = load ptr, ptr %34, align 8, !tbaa !30
  %36 = getelementptr inbounds nuw %struct.AVCodecParameters, ptr %35, i32 0, i32 0
  store i32 1, ptr %36, align 8, !tbaa !37
  %37 = load ptr, ptr %5, align 8, !tbaa !28
  %38 = getelementptr inbounds nuw %struct.AVStream, ptr %37, i32 0, i32 3
  %39 = load ptr, ptr %38, align 8, !tbaa !30
  %40 = getelementptr inbounds nuw %struct.AVCodecParameters, ptr %39, i32 0, i32 1
  store i32 65543, ptr %40, align 4, !tbaa !40
  %41 = load ptr, ptr %5, align 8, !tbaa !28
  %42 = getelementptr inbounds nuw %struct.AVStream, ptr %41, i32 0, i32 3
  %43 = load ptr, ptr %42, align 8, !tbaa !30
  %44 = getelementptr inbounds nuw %struct.AVCodecParameters, ptr %43, i32 0, i32 24
  %45 = getelementptr inbounds nuw %struct.AVChannelLayout, ptr %8, i32 0, i32 0
  store i32 1, ptr %45, align 8, !tbaa !41
  %46 = getelementptr inbounds nuw %struct.AVChannelLayout, ptr %8, i32 0, i32 1
  store i32 1, ptr %46, align 4, !tbaa !42
  %47 = getelementptr inbounds nuw %struct.AVChannelLayout, ptr %8, i32 0, i32 2
  store i64 4, ptr %47, align 8, !tbaa !43
  %48 = getelementptr inbounds nuw %struct.AVChannelLayout, ptr %8, i32 0, i32 3
  store ptr null, ptr %48, align 8, !tbaa !44
  call void @llvm.memcpy.p0.p0.i64(ptr align 8 %44, ptr align 8 %8, i64 24, i1 false), !tbaa.struct !45
  %49 = load ptr, ptr %5, align 8, !tbaa !28
  %50 = getelementptr inbounds nuw %struct.AVStream, ptr %49, i32 0, i32 3
  %51 = load ptr, ptr %50, align 8, !tbaa !30
  %52 = getelementptr inbounds nuw %struct.AVCodecParameters, ptr %51, i32 0, i32 25
  store i32 8000, ptr %52, align 8, !tbaa !48
  %53 = load ptr, ptr %5, align 8, !tbaa !28
  %54 = getelementptr inbounds nuw %struct.AVStream, ptr %53, i32 0, i32 3
  %55 = load ptr, ptr %54, align 8, !tbaa !30
  %56 = getelementptr inbounds nuw %struct.AVCodecParameters, ptr %55, i32 0, i32 9
  store i32 8, ptr %56, align 8, !tbaa !49
  %57 = load ptr, ptr %5, align 8, !tbaa !28
  %58 = getelementptr inbounds nuw %struct.AVStream, ptr %57, i32 0, i32 3
  %59 = load ptr, ptr %58, align 8, !tbaa !30
  %60 = getelementptr inbounds nuw %struct.AVCodecParameters, ptr %59, i32 0, i32 26
  store i32 1, ptr %60, align 4, !tbaa !50
  %61 = load ptr, ptr %5, align 8, !tbaa !28
  call void @avpriv_set_pts_info(ptr noundef %61, i32 noundef 64, i32 noundef 1, i32 noundef 1000000)
  %62 = load ptr, ptr %6, align 8, !tbaa !26
  %63 = getelementptr inbounds nuw %struct.MXGContext, ptr %62, i32 0, i32 0
  store ptr null, ptr %63, align 8, !tbaa !51
  %64 = load ptr, ptr %6, align 8, !tbaa !26
  %65 = getelementptr inbounds nuw %struct.MXGContext, ptr %64, i32 0, i32 1
  store ptr null, ptr %65, align 8, !tbaa !53
  %66 = load ptr, ptr %6, align 8, !tbaa !26
  %67 = getelementptr inbounds nuw %struct.MXGContext, ptr %66, i32 0, i32 2
  store ptr null, ptr %67, align 8, !tbaa !54
  %68 = load ptr, ptr %6, align 8, !tbaa !26
  %69 = getelementptr inbounds nuw %struct.MXGContext, ptr %68, i32 0, i32 3
  store i32 0, ptr %69, align 8, !tbaa !55
  %70 = load ptr, ptr %6, align 8, !tbaa !26
  %71 = getelementptr inbounds nuw %struct.MXGContext, ptr %70, i32 0, i32 4
  store i64 -9223372036854775808, ptr %71, align 8, !tbaa !56
  %72 = load ptr, ptr %6, align 8, !tbaa !26
  %73 = getelementptr inbounds nuw %struct.MXGContext, ptr %72, i32 0, i32 5
  store i32 0, ptr %73, align 8, !tbaa !57
  store i32 0, ptr %2, align 4
  store i32 1, ptr %7, align 4
  br label %74

74:                                               ; preds = %32, %31, %16
  call void @llvm.lifetime.end.p0(i64 8, ptr %6) #6
  call void @llvm.lifetime.end.p0(i64 8, ptr %5) #6
  call void @llvm.lifetime.end.p0(i64 8, ptr %4) #6
  %75 = load i32, ptr %2, align 4
  ret i32 %75
}