; Function Attrs: nounwind uwtable
define internal range(i32 -12, 1) i32 @mxg_read_header(ptr noundef %0) #0 {
  %2 = getelementptr inbounds nuw i8, ptr %0, i64 24
  %3 = load ptr, ptr %2, align 8, !tbaa !4
  %4 = tail call ptr @avformat_new_stream(ptr noundef %0, ptr noundef null) #5
  %.not = icmp eq ptr %4, null
  br i1 %.not, label %21, label %5

5:                                                ; preds = %1
  %6 = getelementptr inbounds nuw i8, ptr %4, i64 16
  %7 = load ptr, ptr %6, align 8, !tbaa !24
  store i32 0, ptr %7, align 8, !tbaa !31
  %8 = getelementptr inbounds nuw i8, ptr %7, i64 4
  store i32 145, ptr %8, align 4, !tbaa !34
  tail call void @avpriv_set_pts_info(ptr noundef nonnull %4, i32 noundef 64, i32 noundef 1, i32 noundef 1000000) #5
  %9 = tail call ptr @avformat_new_stream(ptr noundef nonnull %0, ptr noundef null) #5
  %.not23 = icmp eq ptr %9, null
  br i1 %.not23, label %21, label %10

10:                                               ; preds = %5
  %11 = getelementptr inbounds nuw i8, ptr %9, i64 16
  %12 = load ptr, ptr %11, align 8, !tbaa !24
  store i32 1, ptr %12, align 8, !tbaa !31
  %13 = getelementptr inbounds nuw i8, ptr %12, i64 4
  store i32 65543, ptr %13, align 4, !tbaa !34
  %14 = getelementptr inbounds nuw i8, ptr %12, i64 128
  store i32 1, ptr %14, align 8, !tbaa !35
  %.sroa.2.0..sroa_idx = getelementptr inbounds nuw i8, ptr %12, i64 132
  store i32 1, ptr %.sroa.2.0..sroa_idx, align 4, !tbaa !35
  %.sroa.3.0..sroa_idx = getelementptr inbounds nuw i8, ptr %12, i64 136
  store i64 4, ptr %.sroa.3.0..sroa_idx, align 8, !tbaa !36
  %.sroa.4.0..sroa_idx = getelementptr inbounds nuw i8, ptr %12, i64 144
  store ptr null, ptr %.sroa.4.0..sroa_idx, align 8, !tbaa !37
  %15 = load ptr, ptr %11, align 8, !tbaa !24
  %16 = getelementptr inbounds nuw i8, ptr %15, i64 152
  store i32 8000, ptr %16, align 8, !tbaa !38
  %17 = getelementptr inbounds nuw i8, ptr %15, i64 56
  store i32 8, ptr %17, align 8, !tbaa !39
  %18 = getelementptr inbounds nuw i8, ptr %15, i64 156
  store i32 1, ptr %18, align 4, !tbaa !40
  tail call void @avpriv_set_pts_info(ptr noundef nonnull %9, i32 noundef 64, i32 noundef 1, i32 noundef 1000000) #5
  %19 = getelementptr inbounds nuw i8, ptr %3, i64 32
  tail call void @llvm.memset.p0.i64(ptr noundef nonnull align 8 dereferenceable(28) %3, i8 0, i64 28, i1 false)
  store i64 -9223372036854775808, ptr %19, align 8, !tbaa !41
  %20 = getelementptr inbounds nuw i8, ptr %3, i64 40
  store i32 0, ptr %20, align 8, !tbaa !43
  br label %21

21:                                               ; preds = %5, %1, %10
  %.0 = phi i32 [ 0, %10 ], [ -12, %1 ], [ -12, %5 ]
  ret i32 %.0
}